target datalayout = "e-m:e-p270:32:32-p271:32:32-p272:64:64-i64:64-i128:128-f80:128-n8:16:32:64-S128"
target triple = "x86_64-pc-linux-gnu"

%"struct.cv::dnn::dnn4_v20241223::detail::LayerPin" = type { i32, i32 }
%"class.cv::AsyncArray" = type { ptr }

; Function Attrs: mustprogress uwtable
define void @_ZN2cv3dnn14dnn4_v202412233Net4Impl12getBlobAsyncENSt7__cxx1112basic_stringIcSt11char_traitsIcESaIcEEE(ptr dead_on_unwind noalias writable sret(%"class.cv::AsyncArray") align 8 %0, ptr noundef nonnull align 8 dereferenceable(504) %1, ptr noundef %2) #4 align 2 {
  %4 = alloca ptr, align 8
  %5 = alloca ptr, align 8
  %6 = alloca ptr, align 8
  %7 = alloca %"struct.cv::dnn::dnn4_v20241223::detail::LayerPin", align 4
  store ptr %0, ptr %4, align 8
  store ptr %1, ptr %5, align 8, !tbaa !16
  store ptr %2, ptr %6, align 8, !tbaa !14
  %8 = load ptr, ptr %5, align 8
  call void @llvm.lifetime.start.p0(i64 8, ptr %7) #3
  %9 = call i64 @_ZNK2cv3dnn14dnn4_v202412233Net4Impl13getPinByAliasERKNSt7__cxx1112basic_stringIcSt11char_traitsIcESaIcEEE(ptr noundef nonnull align 8 dereferenceable(504) %8, ptr noundef nonnull align 8 dereferenceable(32) %2)
  store i64 %9, ptr %7, align 4
  %10 = load ptr, ptr %8, align 8, !tbaa !18
  %11 = getelementptr inbounds ptr, ptr %10, i64 13
  %12 = load ptr, ptr %11, align 8
  call void %12(ptr dead_on_unwind writable sret(%"class.cv::AsyncArray") align 8 %0, ptr noundef nonnull align 8 dereferenceable(504) %8, ptr noundef nonnull align 4 dereferenceable(8) %7)
  call void @llvm.lifetime.end.p0(i64 8, ptr %7) #3
  ret void
}